target datalayout = "e-m:e-p270:32:32-p271:32:32-p272:64:64-i64:64-i128:128-f80:128-n8:16:32:64-S128"
target triple = "x86_64-pc-linux-gnu"

%struct._YR_COMPILER = type { i32, i32, i32, i32, i32, [1 x %struct.__jmp_buf_tag], ptr, ptr, ptr, ptr, ptr, ptr, ptr, ptr, ptr, ptr, ptr, ptr, ptr, ptr, i32, i32, [4 x ptr], [4 x ptr], i32, i32, i32, [16 x ptr], i32, [16 x ptr], i32, [256 x i8], [1024 x i8], ptr, i16, [1024 x i8], ptr, %struct.rq, %struct.cs, ptr, i32 }
%struct.__jmp_buf_tag = type { [8 x i64], i32, %struct.__sigset_t }
%struct.__sigset_t = type { [16 x i64] }
%struct.rq = type { ptr, ptr }
%struct.cs = type { ptr, ptr }

; Function Attrs: nounwind uwtable
define i32 @yr_parser_emit_with_arg(ptr noundef %0, i8 noundef signext %1, i64 noundef %2, ptr noundef %3) #0 {
  %5 = alloca ptr, align 8
  %6 = alloca i8, align 1
  %7 = alloca i64, align 8
  %8 = alloca ptr, align 8
  %9 = alloca i32, align 4
  store ptr %0, ptr %5, align 8, !tbaa !3
  store i8 %1, ptr %6, align 1, !tbaa !7
  store i64 %2, ptr %7, align 8, !tbaa !24
  store ptr %3, ptr %8, align 8, !tbaa !8
  call void @llvm.lifetime.start.p0(i64 4, ptr %9) #5
  %10 = load ptr, ptr %5, align 8, !tbaa !3
  %11 = call ptr @yara_yyget_extra(ptr noundef %10)
  %12 = getelementptr inbounds nuw %struct._YR_COMPILER, ptr %11, i32 0, i32 9
  %13 = load ptr, ptr %12, align 8, !tbaa !10
  %14 = load ptr, ptr %8, align 8, !tbaa !8
  %15 = call i32 @yr_arena_write_data(ptr noundef %13, ptr noundef %6, i64 noundef 1, ptr noundef %14)
  store i32 %15, ptr %9, align 4, !tbaa !26
  %16 = load i32, ptr %9, align 4, !tbaa !26
  %17 = icmp eq i32 %16, 0
  br i1 %17, label %18, label %24

18:                                               ; preds = %4
  %19 = load ptr, ptr %5, align 8, !tbaa !3
  %20 = call ptr @yara_yyget_extra(ptr noundef %19)
  %21 = getelementptr inbounds nuw %struct._YR_COMPILER, ptr %20, i32 0, i32 9
  %22 = load ptr, ptr %21, align 8, !tbaa !10
  %23 = call i32 @yr_arena_write_data(ptr noundef %22, ptr noundef %7, i64 noundef 8, ptr noundef null)
  store i32 %23, ptr %9, align 4, !tbaa !26
  br label %24

24:                                               ; preds = %18, %4
  %25 = load i32, ptr %9, align 4, !tbaa !26
  call void @llvm.lifetime.end.p0(i64 4, ptr %9) #5
  ret i32 %25
}