; Function Attrs: nounwind uwtable
define i32 @yr_parser_emit_with_arg(ptr noundef %0, i8 noundef signext %1, i64 noundef %2, ptr noundef %3) local_unnamed_addr #0 {
  %5 = alloca i8, align 1
  %6 = alloca i64, align 8
  store i8 %1, ptr %5, align 1, !tbaa !3
  store i64 %2, ptr %6, align 8, !tbaa !21
  %7 = tail call ptr @yara_yyget_extra(ptr noundef %0) #6
  %8 = getelementptr inbounds nuw i8, ptr %7, i64 248
  %9 = load ptr, ptr %8, align 8, !tbaa !6
  %10 = call i32 @yr_arena_write_data(ptr noundef %9, ptr noundef nonnull %5, i64 noundef 1, ptr noundef %3) #6
  %11 = icmp eq i32 %10, 0
  br i1 %11, label %12, label %17

12:                                               ; preds = %4
  %13 = call ptr @yara_yyget_extra(ptr noundef %0) #6
  %14 = getelementptr inbounds nuw i8, ptr %13, i64 248
  %15 = load ptr, ptr %14, align 8, !tbaa !6
  %16 = call i32 @yr_arena_write_data(ptr noundef %15, ptr noundef nonnull %6, i64 noundef 8, ptr noundef null) #6
  br label %17

17:                                               ; preds = %12, %4
  %.0 = phi i32 [ %16, %12 ], [ %10, %4 ]
  ret i32 %.0
}